; Function Attrs: mustprogress uwtable
define dso_local void @_ZN11cmJSONState8AddErrorERKNSt7__cxx1112basic_stringIcSt11char_traitsIcESaIcEEE(ptr noundef nonnull align 8 dereferenceable(80) %0, ptr noundef nonnull align 8 dereferenceable(32) %1) local_unnamed_addr #0 align 2 personality ptr @__gxx_personality_v0 {
  %3 = alloca %"class.std::__cxx11::basic_string", align 8
  %4 = getelementptr inbounds nuw i8, ptr %0, i64 32
  %5 = load ptr, ptr %4, align 8
  %6 = getelementptr inbounds nuw i8, ptr %0, i64 40
  %7 = load ptr, ptr %6, align 8
  %.not.i = icmp eq ptr %5, %7
  br i1 %.not.i, label %13, label %8

8:                                                ; preds = %2
  call void @llvm.lifetime.start.p0(i64 32, ptr nonnull %3)
  call void @_ZNSt7__cxx1112basic_stringIcSt11char_traitsIcESaIcEEC1ERKS4_(ptr noundef nonnull align 8 dereferenceable(32) %3, ptr noundef nonnull align 8 dereferenceable(32) %1)
  store i32 -1, ptr %5, align 8
  %9 = getelementptr inbounds nuw i8, ptr %5, i64 4
  store i32 -1, ptr %9, align 4
  %10 = getelementptr inbounds nuw i8, ptr %5, i64 8
  call void @_ZNSt7__cxx1112basic_stringIcSt11char_traitsIcESaIcEEC1EOS4_(ptr noundef nonnull align 8 dereferenceable(32) %10, ptr noundef nonnull align 8 dereferenceable(32) %3) #16
  call void @_ZNSt7__cxx1112basic_stringIcSt11char_traitsIcESaIcEED1Ev(ptr noundef nonnull align 8 dereferenceable(32) %3) #16
  call void @llvm.lifetime.end.p0(i64 32, ptr nonnull %3)
  %11 = load ptr, ptr %4, align 8
  %12 = getelementptr inbounds nuw i8, ptr %11, i64 40
  store ptr %12, ptr %4, align 8
  br label %_ZNSt6vectorIN11cmJSONState5ErrorESaIS1_EE12emplace_backIJRKNSt7__cxx1112basic_stringIcSt11char_traitsIcESaIcEEEEEERS1_DpOT_.exit

13:                                               ; preds = %2
  %14 = getelementptr inbounds nuw i8, ptr %0, i64 24
  tail call void @_ZNSt6vectorIN11cmJSONState5ErrorESaIS1_EE17_M_realloc_insertIJRKNSt7__cxx1112basic_stringIcSt11char_traitsIcESaIcEEEEEEvN9__gnu_cxx17__normal_iteratorIPS1_S3_EEDpOT_(ptr noundef nonnull align 8 dereferenceable(24) %14, ptr %5, ptr noundef nonnull align 8 dereferenceable(32) %1)
  br label %_ZNSt6vectorIN11cmJSONState5ErrorESaIS1_EE12emplace_backIJRKNSt7__cxx1112basic_stringIcSt11char_traitsIcESaIcEEEEEERS1_DpOT_.exit

_ZNSt6vectorIN11cmJSONState5ErrorESaIS1_EE12emplace_backIJRKNSt7__cxx1112basic_stringIcSt11char_traitsIcESaIcEEEEEERS1_DpOT_.exit: ; preds = %8, %13
  ret void
}